; Function Attrs: nounwind uwtable
define ptr @l_Array_foldlMUnsafe_fold___at_Lean_Compiler_LCNF_JoinPointCommonArgs_reduce_goAnalyze___spec__12___boxed(ptr noundef %0, ptr noundef %1, ptr noundef %2, ptr noundef %3, ptr noundef %4, ptr noundef %5, ptr noundef %6, ptr noundef %7, ptr noundef %8, ptr noundef %9, ptr noundef %10, ptr noundef %11) local_unnamed_addr #1 {
  %13 = getelementptr i8, ptr %1, i64 8
  %.val23 = load i64, ptr %13, align 8, !tbaa !12
  %14 = ptrtoint ptr %1 to i64
  %15 = and i64 %14, 1
  %.not = icmp eq i64 %15, 0
  br i1 %.not, label %16, label %lean_dec.exit18

16:                                               ; preds = %12
  %17 = load i32, ptr %1, align 4, !tbaa !8
  %18 = icmp sgt i32 %17, 1
  br i1 %18, label %19, label %21, !prof !11

19:                                               ; preds = %16
  %20 = add nsw i32 %17, -1
  store i32 %20, ptr %1, align 4, !tbaa !8
  br label %lean_dec.exit18

21:                                               ; preds = %16
  %.not.i = icmp eq i32 %17, 0
  br i1 %.not.i, label %lean_dec.exit18, label %22

22:                                               ; preds = %21
  tail call void @lean_dec_ref_cold(ptr noundef nonnull %1) #5
  br label %lean_dec.exit18

lean_dec.exit18:                                  ; preds = %22, %21, %19, %12
  %23 = getelementptr i8, ptr %2, i64 8
  %.val = load i64, ptr %23, align 8, !tbaa !12
  %24 = ptrtoint ptr %2 to i64
  %25 = and i64 %24, 1
  %.not24 = icmp eq i64 %25, 0
  br i1 %.not24, label %26, label %lean_dec.exit17

26:                                               ; preds = %lean_dec.exit18
  %27 = load i32, ptr %2, align 4, !tbaa !8
  %28 = icmp sgt i32 %27, 1
  br i1 %28, label %29, label %31, !prof !11

29:                                               ; preds = %26
  %30 = add nsw i32 %27, -1
  store i32 %30, ptr %2, align 4, !tbaa !8
  br label %lean_dec.exit17

31:                                               ; preds = %26
  %.not.i19 = icmp eq i32 %27, 0
  br i1 %.not.i19, label %lean_dec.exit17, label %32

32:                                               ; preds = %31
  tail call void @lean_dec_ref_cold(ptr noundef nonnull %2) #5
  br label %lean_dec.exit17

lean_dec.exit17:                                  ; preds = %32, %31, %29, %lean_dec.exit18
  %33 = tail call ptr @l_Array_foldlMUnsafe_fold___at_Lean_Compiler_LCNF_JoinPointCommonArgs_reduce_goAnalyze___spec__12(ptr noundef %0, i64 noundef %.val23, i64 noundef %.val, ptr noundef %3, ptr noundef %4, ptr noundef %5, ptr noundef %6, ptr noundef %7, ptr noundef %8, ptr noundef %9, ptr noundef %10, ptr noundef %11)
  %34 = ptrtoint ptr %0 to i64
  %35 = and i64 %34, 1
  %.not25 = icmp eq i64 %35, 0
  br i1 %.not25, label %36, label %lean_dec.exit

36:                                               ; preds = %lean_dec.exit17
  %37 = load i32, ptr %0, align 4, !tbaa !8
  %38 = icmp sgt i32 %37, 1
  br i1 %38, label %39, label %41, !prof !11

39:                                               ; preds = %36
  %40 = add nsw i32 %37, -1
  store i32 %40, ptr %0, align 4, !tbaa !8
  br label %lean_dec.exit

41:                                               ; preds = %36
  %.not.i21 = icmp eq i32 %37, 0
  br i1 %.not.i21, label %lean_dec.exit, label %42

42:                                               ; preds = %41
  tail call void @lean_dec_ref_cold(ptr noundef nonnull %0) #5
  br label %lean_dec.exit

lean_dec.exit:                                    ; preds = %42, %41, %39, %lean_dec.exit17
  ret ptr %33
}